; Function Attrs: mustprogress uwtable
define hidden void @_ZN12seq_rewriter22mk_der_antimirov_unionEP4exprS1_(ptr dead_on_unwind noalias writable sret(%class.obj_ref) align 8 initializes((0, 16)) %0, ptr noundef nonnull align 8 dereferenceable(497) %1, ptr noundef %2, ptr noundef %3) local_unnamed_addr #3 align 2 {
  %5 = tail call noundef nonnull align 8 dereferenceable(8) ptr @_Z14verbose_streamv()
  %6 = tail call noundef nonnull align 8 dereferenceable(8) ptr @_ZSt16__ostream_insertIcSt11char_traitsIcEERSt13basic_ostreamIT_T0_ES6_PKS3_l(ptr noundef nonnull align 8 dereferenceable(8) %5, ptr noundef nonnull @.str.16, i64 noundef 6)
  %7 = load i32, ptr %2, align 4, !tbaa !709
  %8 = zext i32 %7 to i64
  %9 = tail call noundef nonnull align 8 dereferenceable(8) ptr @_ZNSo9_M_insertImEERSoT_(ptr noundef nonnull align 8 dereferenceable(8) %5, i64 noundef %8)
  %10 = tail call noundef nonnull align 8 dereferenceable(8) ptr @_ZSt16__ostream_insertIcSt11char_traitsIcEERSt13basic_ostreamIT_T0_ES6_PKS3_l(ptr noundef nonnull align 8 dereferenceable(8) %9, ptr noundef nonnull @.str.17, i64 noundef 1)
  %11 = load i32, ptr %3, align 4, !tbaa !709
  %12 = zext i32 %11 to i64
  %13 = tail call noundef nonnull align 8 dereferenceable(8) ptr @_ZNSo9_M_insertImEERSoT_(ptr noundef nonnull align 8 dereferenceable(8) %9, i64 noundef %12)
  %14 = tail call noundef nonnull align 8 dereferenceable(8) ptr @_ZSt16__ostream_insertIcSt11char_traitsIcEERSt13basic_ostreamIT_T0_ES6_PKS3_l(ptr noundef nonnull align 8 dereferenceable(8) %13, ptr noundef nonnull @.str.18, i64 noundef 1)
  tail call void @_ZN12seq_rewriter9mk_der_opEiP4exprS1_(ptr dead_on_unwind writable sret(%class.obj_ref) align 8 %0, ptr noundef nonnull align 8 dereferenceable(497) %1, i32 noundef 66, ptr noundef nonnull %2, ptr noundef nonnull %3)
  ret void
}